; ModuleID = '26/817.c'
source_filename = "26/817.c"
target datalayout = "e-m:e-p270:32:32-p271:32:32-p272:64:64-i64:64-f80:128-n8:16:32:64-S128"
target triple = "x86_64-pc-linux-gnu"

@.str = private unnamed_addr constant [3 x i8] c"%s\00", align 1

; Function Attrs: noinline nounwind uwtable
define dso_local i32 @main() #0 {
  %1 = alloca i32, align 4
  %2 = alloca [150 x i8], align 16
  %3 = alloca [150 x i8], align 16
  %4 = alloca i8*, align 8
  %5 = alloca i8*, align 8
  store i32 0, i32* %1, align 4
  %6 = getelementptr inbounds [150 x i8], [150 x i8]* %2, i64 0, i64 0
  store i8* %6, i8** %4, align 8
  %7 = getelementptr inbounds [150 x i8], [150 x i8]* %3, i64 0, i64 0
  store i8* %7, i8** %5, align 8
  %8 = getelementptr inbounds [150 x i8], [150 x i8]* %2, i64 0, i64 0
  %9 = call i32 (i8*, ...) bitcast (i32 (...)* @gets to i32 (i8*, ...)*)(i8* %8)
  br label %10

10:                                               ; preds = %36, %0
  %11 = load i8*, i8** %4, align 8
  %12 = load i8, i8* %11, align 1
  %13 = sext i8 %12 to i32
  %14 = icmp ne i32 %13, 0
  br i1 %14, label %15, label %41

15:                                               ; preds = %10
  %16 = load i8*, i8** %4, align 8
  %17 = load i8, i8* %16, align 1
  %18 = sext i8 %17 to i32
  %19 = icmp ne i32 %18, 32
  br i1 %19, label %28, label %20

20:                                               ; preds = %15
  %21 = load i8*, i8** %4, align 8
  store i8 32, i8* %21, align 1
  br i1 true, label %22, label %32

22:                                               ; preds = %20
  %23 = load i8*, i8** %4, align 8
  %24 = getelementptr inbounds i8, i8* %23, i64 -1
  %25 = load i8, i8* %24, align 1
  %26 = sext i8 %25 to i32
  %27 = icmp ne i32 %26, 32
  br i1 %27, label %28, label %32

28:                                               ; preds = %22, %15
  %29 = load i8*, i8** %4, align 8
  %30 = load i8, i8* %29, align 1
  %31 = load i8*, i8** %5, align 8
  store i8 %30, i8* %31, align 1
  br label %35

32:                                               ; preds = %22, %20
  %33 = load i8*, i8** %5, align 8
  %34 = getelementptr inbounds i8, i8* %33, i32 -1
  store i8* %34, i8** %5, align 8
  br label %35

35:                                               ; preds = %32, %28
  br label %36

36:                                               ; preds = %35
  %37 = load i8*, i8** %4, align 8
  %38 = getelementptr inbounds i8, i8* %37, i32 1
  store i8* %38, i8** %4, align 8
  %39 = load i8*, i8** %5, align 8
  %40 = getelementptr inbounds i8, i8* %39, i32 1
  store i8* %40, i8** %5, align 8
  br label %10

41:                                               ; preds = %10
  %42 = load i8*, i8** %5, align 8
  store i8 0, i8* %42, align 1
  %43 = getelementptr inbounds [150 x i8], [150 x i8]* %3, i64 0, i64 0
  %44 = call i32 (i8*, ...) @printf(i8* getelementptr inbounds ([3 x i8], [3 x i8]* @.str, i64 0, i64 0), i8* %43)
  ret i32 0
}

declare dso_local i32 @gets(...) #1

declare dso_local i32 @printf(i8*, ...) #1


!llvm.module.flags = !{!0}
!llvm.ident = !{!1}

!0 = !{i32 1, !"wchar_size", i32 4}
!1 = !{!"clang version 10.0.0-4ubuntu1 "}
